target datalayout = "e-m:e-p270:32:32-p271:32:32-p272:64:64-i64:64-i128:128-f80:128-n8:16:32:64-S128"
target triple = "x86_64-pc-linux-gnu"

%class.TransTableS = type <{ %class.TransTable, [14 x i64], %"struct.TransTableS::statsResetsType", [4 x i8], [5 x %"struct.TransTableS::winCardType"], i32, i32, i64, i64, i64, i32, i32, i32, i32, i32, i8, [3 x i8], i32, [4 x i8], ptr, [14 x [4 x ptr]], ptr, ptr, [14 x [4 x ptr]], ptr, ptr, [14 x [4 x ptr]], i32, i32, [14 x [4 x i32]], [14 x [4 x i32]], %"class.std::vector", [14 x i64], i32, [4 x i8] }>
%class.TransTable = type { ptr }
%"struct.TransTableS::statsResetsType" = type { i32, [6 x i32] }
%"struct.TransTableS::winCardType" = type { i32, i32, ptr, ptr, ptr, ptr }
%"class.std::vector" = type { %"struct.std::_Vector_base" }
%"struct.std::_Vector_base" = type { %"struct.std::_Vector_base<std::__cxx11::basic_string<char>, std::allocator<std::__cxx11::basic_string<char>>>::_Vector_impl" }
%"struct.std::_Vector_base<std::__cxx11::basic_string<char>, std::allocator<std::__cxx11::basic_string<char>>>::_Vector_impl" = type { %"struct.std::_Vector_base<std::__cxx11::basic_string<char>, std::allocator<std::__cxx11::basic_string<char>>>::_Vector_impl_data" }
%"struct.std::_Vector_base<std::__cxx11::basic_string<char>, std::allocator<std::__cxx11::basic_string<char>>>::_Vector_impl_data" = type { ptr, ptr, ptr }

; Function Attrs: mustprogress nounwind uwtable
define void @_ZN11TransTableS4WipeEv(ptr noundef nonnull align 8 dereferenceable(2396) %0) #5 align 2 {
  %2 = alloca ptr, align 8
  %3 = alloca i32, align 4
  %4 = alloca i32, align 4
  %5 = alloca i32, align 4
  store ptr %0, ptr %2, align 8
  %6 = load ptr, ptr %2, align 8
  store i32 1, ptr %3, align 4
  br label %7

7:                                                ; preds = %33, %1
  %8 = load i32, ptr %3, align 4
  %9 = getelementptr inbounds nuw %class.TransTableS, ptr %6, i32 0, i32 13
  %10 = load i32, ptr %9, align 4
  %11 = icmp sle i32 %8, %10
  br i1 %11, label %12, label %36

12:                                               ; preds = %7
  %13 = getelementptr inbounds nuw %class.TransTableS, ptr %6, i32 0, i32 21
  %14 = load ptr, ptr %13, align 8
  %15 = load i32, ptr %3, align 4
  %16 = sext i32 %15 to i64
  %17 = getelementptr inbounds ptr, ptr %14, i64 %16
  %18 = load ptr, ptr %17, align 8
  %19 = icmp ne ptr %18, null
  br i1 %19, label %20, label %27

20:                                               ; preds = %12
  %21 = getelementptr inbounds nuw %class.TransTableS, ptr %6, i32 0, i32 21
  %22 = load ptr, ptr %21, align 8
  %23 = load i32, ptr %3, align 4
  %24 = sext i32 %23 to i64
  %25 = getelementptr inbounds ptr, ptr %22, i64 %24
  %26 = load ptr, ptr %25, align 8
  call void @free(ptr noundef %26) #3
  br label %27

27:                                               ; preds = %20, %12
  %28 = getelementptr inbounds nuw %class.TransTableS, ptr %6, i32 0, i32 21
  %29 = load ptr, ptr %28, align 8
  %30 = load i32, ptr %3, align 4
  %31 = sext i32 %30 to i64
  %32 = getelementptr inbounds ptr, ptr %29, i64 %31
  store ptr null, ptr %32, align 8
  br label %33

33:                                               ; preds = %27
  %34 = load i32, ptr %3, align 4
  %35 = add nsw i32 %34, 1
  store i32 %35, ptr %3, align 4
  br label %7, !llvm.loop !24

36:                                               ; preds = %7
  store i32 1, ptr %3, align 4
  br label %37

37:                                               ; preds = %63, %36
  %38 = load i32, ptr %3, align 4
  %39 = getelementptr inbounds nuw %class.TransTableS, ptr %6, i32 0, i32 14
  %40 = load i32, ptr %39, align 8
  %41 = icmp sle i32 %38, %40
  br i1 %41, label %42, label %66

42:                                               ; preds = %37
  %43 = getelementptr inbounds nuw %class.TransTableS, ptr %6, i32 0, i32 22
  %44 = load ptr, ptr %43, align 8
  %45 = load i32, ptr %3, align 4
  %46 = sext i32 %45 to i64
  %47 = getelementptr inbounds ptr, ptr %44, i64 %46
  %48 = load ptr, ptr %47, align 8
  %49 = icmp ne ptr %48, null
  br i1 %49, label %50, label %57

50:                                               ; preds = %42
  %51 = getelementptr inbounds nuw %class.TransTableS, ptr %6, i32 0, i32 22
  %52 = load ptr, ptr %51, align 8
  %53 = load i32, ptr %3, align 4
  %54 = sext i32 %53 to i64
  %55 = getelementptr inbounds ptr, ptr %52, i64 %54
  %56 = load ptr, ptr %55, align 8
  call void @free(ptr noundef %56) #3
  br label %57

57:                                               ; preds = %50, %42
  %58 = getelementptr inbounds nuw %class.TransTableS, ptr %6, i32 0, i32 22
  %59 = load ptr, ptr %58, align 8
  %60 = load i32, ptr %3, align 4
  %61 = sext i32 %60 to i64
  %62 = getelementptr inbounds ptr, ptr %59, i64 %61
  store ptr null, ptr %62, align 8
  br label %63

63:                                               ; preds = %57
  %64 = load i32, ptr %3, align 4
  %65 = add nsw i32 %64, 1
  store i32 %65, ptr %3, align 4
  br label %37, !llvm.loop !25

66:                                               ; preds = %37
  store i32 1, ptr %4, align 4
  br label %67

67:                                               ; preds = %133, %66
  %68 = load i32, ptr %4, align 4
  %69 = icmp sle i32 %68, 13
  br i1 %69, label %70, label %136

70:                                               ; preds = %67
  store i32 0, ptr %5, align 4
  br label %71

71:                                               ; preds = %129, %70
  %72 = load i32, ptr %5, align 4
  %73 = icmp slt i32 %72, 4
  br i1 %73, label %74, label %132

74:                                               ; preds = %71
  store i32 1, ptr %3, align 4
  br label %75

75:                                               ; preds = %125, %74
  %76 = load i32, ptr %3, align 4
  %77 = getelementptr inbounds nuw %class.TransTableS, ptr %6, i32 0, i32 30
  %78 = load i32, ptr %4, align 4
  %79 = sext i32 %78 to i64
  %80 = getelementptr inbounds [14 x [4 x i32]], ptr %77, i64 0, i64 %79
  %81 = load i32, ptr %5, align 4
  %82 = sext i32 %81 to i64
  %83 = getelementptr inbounds [4 x i32], ptr %80, i64 0, i64 %82
  %84 = load i32, ptr %83, align 4
  %85 = icmp sle i32 %76, %84
  br i1 %85, label %86, label %128

86:                                               ; preds = %75
  %87 = getelementptr inbounds nuw %class.TransTableS, ptr %6, i32 0, i32 23
  %88 = load i32, ptr %4, align 4
  %89 = sext i32 %88 to i64
  %90 = getelementptr inbounds [14 x [4 x ptr]], ptr %87, i64 0, i64 %89
  %91 = load i32, ptr %5, align 4
  %92 = sext i32 %91 to i64
  %93 = getelementptr inbounds [4 x ptr], ptr %90, i64 0, i64 %92
  %94 = load ptr, ptr %93, align 8
  %95 = load i32, ptr %3, align 4
  %96 = sext i32 %95 to i64
  %97 = getelementptr inbounds ptr, ptr %94, i64 %96
  %98 = load ptr, ptr %97, align 8
  %99 = icmp ne ptr %98, null
  br i1 %99, label %100, label %113

100:                                              ; preds = %86
  %101 = getelementptr inbounds nuw %class.TransTableS, ptr %6, i32 0, i32 23
  %102 = load i32, ptr %4, align 4
  %103 = sext i32 %102 to i64
  %104 = getelementptr inbounds [14 x [4 x ptr]], ptr %101, i64 0, i64 %103
  %105 = load i32, ptr %5, align 4
  %106 = sext i32 %105 to i64
  %107 = getelementptr inbounds [4 x ptr], ptr %104, i64 0, i64 %106
  %108 = load ptr, ptr %107, align 8
  %109 = load i32, ptr %3, align 4
  %110 = sext i32 %109 to i64
  %111 = getelementptr inbounds ptr, ptr %108, i64 %110
  %112 = load ptr, ptr %111, align 8
  call void @free(ptr noundef %112) #3
  br label %113

113:                                              ; preds = %100, %86
  %114 = getelementptr inbounds nuw %class.TransTableS, ptr %6, i32 0, i32 23
  %115 = load i32, ptr %4, align 4
  %116 = sext i32 %115 to i64
  %117 = getelementptr inbounds [14 x [4 x ptr]], ptr %114, i64 0, i64 %116
  %118 = load i32, ptr %5, align 4
  %119 = sext i32 %118 to i64
  %120 = getelementptr inbounds [4 x ptr], ptr %117, i64 0, i64 %119
  %121 = load ptr, ptr %120, align 8
  %122 = load i32, ptr %3, align 4
  %123 = sext i32 %122 to i64
  %124 = getelementptr inbounds ptr, ptr %121, i64 %123
  store ptr null, ptr %124, align 8
  br label %125

125:                                              ; preds = %113
  %126 = load i32, ptr %3, align 4
  %127 = add nsw i32 %126, 1
  store i32 %127, ptr %3, align 4
  br label %75, !llvm.loop !26

128:                                              ; preds = %75
  br label %129

129:                                              ; preds = %128
  %130 = load i32, ptr %5, align 4
  %131 = add nsw i32 %130, 1
  store i32 %131, ptr %5, align 4
  br label %71, !llvm.loop !27

132:                                              ; preds = %71
  br label %133

133:                                              ; preds = %132
  %134 = load i32, ptr %4, align 4
  %135 = add nsw i32 %134, 1
  store i32 %135, ptr %4, align 4
  br label %67, !llvm.loop !28

136:                                              ; preds = %67
  %137 = getelementptr inbounds nuw %class.TransTableS, ptr %6, i32 0, i32 9
  %138 = load i64, ptr %137, align 8
  %139 = getelementptr inbounds nuw %class.TransTableS, ptr %6, i32 0, i32 8
  store i64 %138, ptr %139, align 8
  ret void
}