; Function Attrs: mustprogress nounwind uwtable
define void @_ZN11TransTableS4WipeEv(ptr nocapture noundef nonnull align 8 dereferenceable(2396) %0) local_unnamed_addr #5 align 2 {
  %2 = getelementptr inbounds nuw i8, ptr %0, i64 396
  %3 = load i32, ptr %2, align 4
  %.not40 = icmp slt i32 %3, 1
  br i1 %.not40, label %.preheader39, label %.lr.ph

.lr.ph:                                           ; preds = %1
  %4 = getelementptr inbounds nuw i8, ptr %0, i64 872
  br label %8

.preheader39:                                     ; preds = %13, %1
  %5 = getelementptr inbounds nuw i8, ptr %0, i64 400
  %6 = load i32, ptr %5, align 8
  %.not3242 = icmp slt i32 %6, 1
  br i1 %.not3242, label %.preheader38, label %.lr.ph44

.lr.ph44:                                         ; preds = %.preheader39
  %7 = getelementptr inbounds nuw i8, ptr %0, i64 880
  br label %20

8:                                                ; preds = %.lr.ph, %13
  %indvars.iv = phi i64 [ 1, %.lr.ph ], [ %indvars.iv.next, %13 ]
  %9 = load ptr, ptr %4, align 8
  %10 = getelementptr inbounds ptr, ptr %9, i64 %indvars.iv
  %11 = load ptr, ptr %10, align 8
  %.not36 = icmp eq ptr %11, null
  br i1 %.not36, label %13, label %12

12:                                               ; preds = %8
  tail call void @free(ptr noundef nonnull %11) #26
  %.pre = load ptr, ptr %4, align 8
  br label %13

13:                                               ; preds = %12, %8
  %14 = phi ptr [ %.pre, %12 ], [ %9, %8 ]
  %15 = getelementptr inbounds ptr, ptr %14, i64 %indvars.iv
  store ptr null, ptr %15, align 8
  %indvars.iv.next = add nuw nsw i64 %indvars.iv, 1
  %16 = load i32, ptr %2, align 4
  %17 = sext i32 %16 to i64
  %.not.not = icmp slt i64 %indvars.iv, %17
  br i1 %.not.not, label %8, label %.preheader39, !llvm.loop !24

.preheader38:                                     ; preds = %25, %.preheader39
  %18 = getelementptr inbounds nuw i8, ptr %0, i64 2032
  %19 = getelementptr inbounds nuw i8, ptr %0, i64 888
  br label %.preheader37

20:                                               ; preds = %.lr.ph44, %25
  %indvars.iv51 = phi i64 [ 1, %.lr.ph44 ], [ %indvars.iv.next52, %25 ]
  %21 = load ptr, ptr %7, align 8
  %22 = getelementptr inbounds ptr, ptr %21, i64 %indvars.iv51
  %23 = load ptr, ptr %22, align 8
  %.not35 = icmp eq ptr %23, null
  br i1 %.not35, label %25, label %24

24:                                               ; preds = %20
  tail call void @free(ptr noundef nonnull %23) #26
  %.pre64 = load ptr, ptr %7, align 8
  br label %25

25:                                               ; preds = %24, %20
  %26 = phi ptr [ %.pre64, %24 ], [ %21, %20 ]
  %27 = getelementptr inbounds ptr, ptr %26, i64 %indvars.iv51
  store ptr null, ptr %27, align 8
  %indvars.iv.next52 = add nuw nsw i64 %indvars.iv51, 1
  %28 = load i32, ptr %5, align 8
  %29 = sext i32 %28 to i64
  %.not32.not = icmp slt i64 %indvars.iv51, %29
  br i1 %.not32.not, label %20, label %.preheader38, !llvm.loop !25

.preheader37:                                     ; preds = %.preheader38, %43
  %indvars.iv60 = phi i64 [ 1, %.preheader38 ], [ %indvars.iv.next61, %43 ]
  br label %.preheader

.preheader:                                       ; preds = %.preheader37, %._crit_edge
  %indvars.iv57 = phi i64 [ 0, %.preheader37 ], [ %indvars.iv.next58, %._crit_edge ]
  %30 = getelementptr inbounds [14 x [4 x i32]], ptr %18, i64 0, i64 %indvars.iv60, i64 %indvars.iv57
  %31 = load i32, ptr %30, align 4
  %.not3345 = icmp slt i32 %31, 1
  br i1 %.not3345, label %._crit_edge, label %.lr.ph47

.lr.ph47:                                         ; preds = %.preheader
  %32 = getelementptr inbounds [14 x [4 x ptr]], ptr %19, i64 0, i64 %indvars.iv60, i64 %indvars.iv57
  br label %33

33:                                               ; preds = %.lr.ph47, %38
  %indvars.iv54 = phi i64 [ 1, %.lr.ph47 ], [ %indvars.iv.next55, %38 ]
  %34 = load ptr, ptr %32, align 8
  %35 = getelementptr inbounds ptr, ptr %34, i64 %indvars.iv54
  %36 = load ptr, ptr %35, align 8
  %.not34 = icmp eq ptr %36, null
  br i1 %.not34, label %38, label %37

37:                                               ; preds = %33
  tail call void @free(ptr noundef nonnull %36) #26
  %.pre65 = load ptr, ptr %32, align 8
  br label %38

38:                                               ; preds = %37, %33
  %39 = phi ptr [ %.pre65, %37 ], [ %34, %33 ]
  %40 = getelementptr inbounds ptr, ptr %39, i64 %indvars.iv54
  store ptr null, ptr %40, align 8
  %indvars.iv.next55 = add nuw nsw i64 %indvars.iv54, 1
  %41 = load i32, ptr %30, align 4
  %42 = sext i32 %41 to i64
  %.not33.not = icmp slt i64 %indvars.iv54, %42
  br i1 %.not33.not, label %33, label %._crit_edge, !llvm.loop !26

._crit_edge:                                      ; preds = %38, %.preheader
  %indvars.iv.next58 = add nuw nsw i64 %indvars.iv57, 1
  %exitcond.not = icmp eq i64 %indvars.iv.next58, 4
  br i1 %exitcond.not, label %43, label %.preheader, !llvm.loop !27

43:                                               ; preds = %._crit_edge
  %indvars.iv.next61 = add nuw nsw i64 %indvars.iv60, 1
  %exitcond63.not = icmp eq i64 %indvars.iv.next61, 14
  br i1 %exitcond63.not, label %44, label %.preheader37, !llvm.loop !28

44:                                               ; preds = %43
  %45 = getelementptr inbounds nuw i8, ptr %0, i64 376
  %46 = load i64, ptr %45, align 8
  %47 = getelementptr inbounds nuw i8, ptr %0, i64 368
  store i64 %46, ptr %47, align 8
  ret void
}